target datalayout = "e-m:e-p270:32:32-p271:32:32-p272:64:64-i64:64-i128:128-f80:128-n8:16:32:64-S128"
target triple = "x86_64-pc-linux-gnu"

%class.b3QuantizedBvh = type <{ ptr, [8 x i8], %class.b3Vector3, %class.b3Vector3, %class.b3Vector3, i32, i32, i8, [7 x i8], %class.b3AlignedObjectArray, %class.b3AlignedObjectArray, %class.b3AlignedObjectArray.0, %class.b3AlignedObjectArray.0, i32, [4 x i8], %class.b3AlignedObjectArray.2, i32, [4 x i8] }>
%class.b3Vector3 = type { %union.anon }
%union.anon = type { [4 x float] }
%class.b3AlignedObjectArray = type <{ [4 x i8], i32, i32, [4 x i8], ptr, i8, [7 x i8] }>
%class.b3AlignedObjectArray.0 = type <{ [4 x i8], i32, i32, [4 x i8], ptr, i8, [7 x i8] }>
%class.b3AlignedObjectArray.2 = type <{ [4 x i8], i32, i32, [4 x i8], ptr, i8, [7 x i8] }>
%struct.b3QuantizedBvhNode = type { %struct.b3QuantizedBvhNodeData }
%struct.b3QuantizedBvhNodeData = type { [3 x i16], [3 x i16], i32 }
%class.b3BvhSubtreeInfo = type { %struct.b3BvhSubtreeInfoData }
%struct.b3BvhSubtreeInfoData = type { [3 x i16], [3 x i16], i32, i32, [3 x i32] }

; Function Attrs: inlinehint mustprogress nounwind uwtable
define linkonce_odr dso_local noundef i32 @_ZNK20b3AlignedObjectArrayI16b3BvhSubtreeInfoE4sizeEv(ptr noundef nonnull align 8 dereferenceable(25) %0) #1 comdat align 2 {
  %2 = alloca ptr, align 8
  store ptr %0, ptr %2, align 8, !tbaa !35
  %3 = load ptr, ptr %2, align 8
  %4 = getelementptr inbounds nuw %class.b3AlignedObjectArray.2, ptr %3, i32 0, i32 1
  %5 = load i32, ptr %4, align 4, !tbaa !57
  ret i32 %5
}

; Function Attrs: mustprogress nounwind uwtable
define linkonce_odr dso_local void @_ZN16b3BvhSubtreeInfo23setAabbFromQuantizeNodeERK18b3QuantizedBvhNode(ptr noundef nonnull align 16 dereferenceable(32) %0, ptr noundef nonnull align 16 dereferenceable(16) %1) #3 comdat align 2 {
  %3 = alloca ptr, align 8
  %4 = alloca ptr, align 8
  store ptr %0, ptr %3, align 8, !tbaa !46
  store ptr %1, ptr %4, align 8, !tbaa !51
  %5 = load ptr, ptr %3, align 8
  %6 = load ptr, ptr %4, align 8, !tbaa !51
  %7 = getelementptr inbounds nuw %struct.b3QuantizedBvhNodeData, ptr %6, i32 0, i32 0
  %8 = getelementptr inbounds [3 x i16], ptr %7, i64 0, i64 0
  %9 = load i16, ptr %8, align 16, !tbaa !59
  %10 = getelementptr inbounds nuw %struct.b3BvhSubtreeInfoData, ptr %5, i32 0, i32 0
  %11 = getelementptr inbounds [3 x i16], ptr %10, i64 0, i64 0
  store i16 %9, ptr %11, align 16, !tbaa !59
  %12 = load ptr, ptr %4, align 8, !tbaa !51
  %13 = getelementptr inbounds nuw %struct.b3QuantizedBvhNodeData, ptr %12, i32 0, i32 0
  %14 = getelementptr inbounds [3 x i16], ptr %13, i64 0, i64 1
  %15 = load i16, ptr %14, align 2, !tbaa !59
  %16 = getelementptr inbounds nuw %struct.b3BvhSubtreeInfoData, ptr %5, i32 0, i32 0
  %17 = getelementptr inbounds [3 x i16], ptr %16, i64 0, i64 1
  store i16 %15, ptr %17, align 2, !tbaa !59
  %18 = load ptr, ptr %4, align 8, !tbaa !51
  %19 = getelementptr inbounds nuw %struct.b3QuantizedBvhNodeData, ptr %18, i32 0, i32 0
  %20 = getelementptr inbounds [3 x i16], ptr %19, i64 0, i64 2
  %21 = load i16, ptr %20, align 4, !tbaa !59
  %22 = getelementptr inbounds nuw %struct.b3BvhSubtreeInfoData, ptr %5, i32 0, i32 0
  %23 = getelementptr inbounds [3 x i16], ptr %22, i64 0, i64 2
  store i16 %21, ptr %23, align 4, !tbaa !59
  %24 = load ptr, ptr %4, align 8, !tbaa !51
  %25 = getelementptr inbounds nuw %struct.b3QuantizedBvhNodeData, ptr %24, i32 0, i32 1
  %26 = getelementptr inbounds [3 x i16], ptr %25, i64 0, i64 0
  %27 = load i16, ptr %26, align 2, !tbaa !59
  %28 = getelementptr inbounds nuw %struct.b3BvhSubtreeInfoData, ptr %5, i32 0, i32 1
  %29 = getelementptr inbounds [3 x i16], ptr %28, i64 0, i64 0
  store i16 %27, ptr %29, align 2, !tbaa !59
  %30 = load ptr, ptr %4, align 8, !tbaa !51
  %31 = getelementptr inbounds nuw %struct.b3QuantizedBvhNodeData, ptr %30, i32 0, i32 1
  %32 = getelementptr inbounds [3 x i16], ptr %31, i64 0, i64 1
  %33 = load i16, ptr %32, align 2, !tbaa !59
  %34 = getelementptr inbounds nuw %struct.b3BvhSubtreeInfoData, ptr %5, i32 0, i32 1
  %35 = getelementptr inbounds [3 x i16], ptr %34, i64 0, i64 1
  store i16 %33, ptr %35, align 2, !tbaa !59
  %36 = load ptr, ptr %4, align 8, !tbaa !51
  %37 = getelementptr inbounds nuw %struct.b3QuantizedBvhNodeData, ptr %36, i32 0, i32 1
  %38 = getelementptr inbounds [3 x i16], ptr %37, i64 0, i64 2
  %39 = load i16, ptr %38, align 2, !tbaa !59
  %40 = getelementptr inbounds nuw %struct.b3BvhSubtreeInfoData, ptr %5, i32 0, i32 1
  %41 = getelementptr inbounds [3 x i16], ptr %40, i64 0, i64 2
  store i16 %39, ptr %41, align 2, !tbaa !59
  ret void
}

; Function Attrs: mustprogress nounwind uwtable
define linkonce_odr dso_local void @_ZN16b3BvhSubtreeInfoC2Ev(ptr noundef nonnull align 16 dereferenceable(32) %0) unnamed_addr #3 comdat align 2 {
  %2 = alloca ptr, align 8
  store ptr %0, ptr %2, align 8, !tbaa !46
  ret void
}

; Function Attrs: mustprogress nounwind uwtable
define linkonce_odr dso_local noundef i32 @_ZNK18b3QuantizedBvhNode14getEscapeIndexEv(ptr noundef nonnull align 16 dereferenceable(16) %0) #3 comdat align 2 {
  %2 = alloca ptr, align 8
  store ptr %0, ptr %2, align 8, !tbaa !51
  %3 = load ptr, ptr %2, align 8
  %4 = getelementptr inbounds nuw %struct.b3QuantizedBvhNodeData, ptr %3, i32 0, i32 2
  %5 = load i32, ptr %4, align 4, !tbaa !61
  %6 = sub nsw i32 0, %5
  ret i32 %6
}

; Function Attrs: mustprogress nounwind uwtable
define linkonce_odr dso_local noundef zeroext i1 @_ZNK18b3QuantizedBvhNode10isLeafNodeEv(ptr noundef nonnull align 16 dereferenceable(16) %0) #3 comdat align 2 {
  %2 = alloca ptr, align 8
  store ptr %0, ptr %2, align 8, !tbaa !51
  %3 = load ptr, ptr %2, align 8
  %4 = getelementptr inbounds nuw %struct.b3QuantizedBvhNodeData, ptr %3, i32 0, i32 2
  %5 = load i32, ptr %4, align 4, !tbaa !61
  %6 = icmp sge i32 %5, 0
  ret i1 %6
}

; Function Attrs: inlinehint mustprogress nounwind uwtable
define linkonce_odr dso_local noundef nonnull align 16 dereferenceable(16) ptr @_ZN20b3AlignedObjectArrayI18b3QuantizedBvhNodeEixEi(ptr noundef nonnull align 8 dereferenceable(25) %0, i32 noundef %1) #1 comdat align 2 {
  %3 = alloca ptr, align 8
  %4 = alloca i32, align 4
  store ptr %0, ptr %3, align 8, !tbaa !33
  store i32 %1, ptr %4, align 4, !tbaa !42
  %5 = load ptr, ptr %3, align 8
  %6 = getelementptr inbounds nuw %class.b3AlignedObjectArray.0, ptr %5, i32 0, i32 4
  %7 = load ptr, ptr %6, align 8, !tbaa !54
  %8 = load i32, ptr %4, align 4, !tbaa !42
  %9 = sext i32 %8 to i64
  %10 = getelementptr inbounds %struct.b3QuantizedBvhNode, ptr %7, i64 %9
  ret ptr %10
}

; Function Attrs: mustprogress uwtable
define dso_local void @_ZN14b3QuantizedBvh20updateSubtreeHeadersEii(ptr noundef nonnull align 16 dereferenceable(252) %0, i32 noundef %1, i32 noundef %2) #0 align 2 {
  %4 = alloca ptr, align 8
  %5 = alloca i32, align 4
  %6 = alloca i32, align 4
  %7 = alloca ptr, align 8
  %8 = alloca i32, align 4
  %9 = alloca i32, align 4
  %10 = alloca ptr, align 8
  %11 = alloca i32, align 4
  %12 = alloca i32, align 4
  %13 = alloca ptr, align 8
  %14 = alloca %class.b3BvhSubtreeInfo, align 16
  %15 = alloca ptr, align 8
  %16 = alloca %class.b3BvhSubtreeInfo, align 16
  store ptr %0, ptr %4, align 8, !tbaa !4
  store i32 %1, ptr %5, align 4, !tbaa !42
  store i32 %2, ptr %6, align 4, !tbaa !42
  %17 = load ptr, ptr %4, align 8
  call void @llvm.lifetime.start.p0(i64 8, ptr %7) #14
  %18 = getelementptr inbounds nuw %class.b3QuantizedBvh, ptr %17, i32 0, i32 12
  %19 = load i32, ptr %5, align 4, !tbaa !42
  %20 = call noundef nonnull align 16 dereferenceable(16) ptr @_ZN20b3AlignedObjectArrayI18b3QuantizedBvhNodeEixEi(ptr noundef nonnull align 8 dereferenceable(25) %18, i32 noundef %19)
  store ptr %20, ptr %7, align 8, !tbaa !51
  call void @llvm.lifetime.start.p0(i64 4, ptr %8) #14
  %21 = load ptr, ptr %7, align 8, !tbaa !51
  %22 = call noundef zeroext i1 @_ZNK18b3QuantizedBvhNode10isLeafNodeEv(ptr noundef nonnull align 16 dereferenceable(16) %21)
  br i1 %22, label %23, label %24

23:                                               ; preds = %3
  br label %27

24:                                               ; preds = %3
  %25 = load ptr, ptr %7, align 8, !tbaa !51
  %26 = call noundef i32 @_ZNK18b3QuantizedBvhNode14getEscapeIndexEv(ptr noundef nonnull align 16 dereferenceable(16) %25)
  br label %27

27:                                               ; preds = %24, %23
  %28 = phi i32 [ 1, %23 ], [ %26, %24 ]
  store i32 %28, ptr %8, align 4, !tbaa !42
  call void @llvm.lifetime.start.p0(i64 4, ptr %9) #14
  %29 = load i32, ptr %8, align 4, !tbaa !42
  %30 = mul nsw i32 %29, 16
  store i32 %30, ptr %9, align 4, !tbaa !42
  call void @llvm.lifetime.start.p0(i64 8, ptr %10) #14
  %31 = getelementptr inbounds nuw %class.b3QuantizedBvh, ptr %17, i32 0, i32 12
  %32 = load i32, ptr %6, align 4, !tbaa !42
  %33 = call noundef nonnull align 16 dereferenceable(16) ptr @_ZN20b3AlignedObjectArrayI18b3QuantizedBvhNodeEixEi(ptr noundef nonnull align 8 dereferenceable(25) %31, i32 noundef %32)
  store ptr %33, ptr %10, align 8, !tbaa !51
  call void @llvm.lifetime.start.p0(i64 4, ptr %11) #14
  %34 = load ptr, ptr %10, align 8, !tbaa !51
  %35 = call noundef zeroext i1 @_ZNK18b3QuantizedBvhNode10isLeafNodeEv(ptr noundef nonnull align 16 dereferenceable(16) %34)
  br i1 %35, label %36, label %37

36:                                               ; preds = %27
  br label %40

37:                                               ; preds = %27
  %38 = load ptr, ptr %10, align 8, !tbaa !51
  %39 = call noundef i32 @_ZNK18b3QuantizedBvhNode14getEscapeIndexEv(ptr noundef nonnull align 16 dereferenceable(16) %38)
  br label %40

40:                                               ; preds = %37, %36
  %41 = phi i32 [ 1, %36 ], [ %39, %37 ]
  store i32 %41, ptr %11, align 4, !tbaa !42
  call void @llvm.lifetime.start.p0(i64 4, ptr %12) #14
  %42 = load i32, ptr %11, align 4, !tbaa !42
  %43 = mul nsw i32 %42, 16
  store i32 %43, ptr %12, align 4, !tbaa !42
  %44 = load i32, ptr %9, align 4, !tbaa !42
  %45 = icmp sle i32 %44, 2048
  br i1 %45, label %46, label %57

46:                                               ; preds = %40
  call void @llvm.lifetime.start.p0(i64 8, ptr %13) #14
  %47 = getelementptr inbounds nuw %class.b3QuantizedBvh, ptr %17, i32 0, i32 15
  call void @llvm.lifetime.start.p0(i64 32, ptr %14) #14
  call void @_ZN16b3BvhSubtreeInfoC2Ev(ptr noundef nonnull align 16 dereferenceable(32) %14)
  %48 = call noundef nonnull align 16 dereferenceable(32) ptr @_ZN20b3AlignedObjectArrayI16b3BvhSubtreeInfoE6expandERKS0_(ptr noundef nonnull align 8 dereferenceable(25) %47, ptr noundef nonnull align 16 dereferenceable(32) %14)
  call void @llvm.lifetime.end.p0(i64 32, ptr %14) #14
  store ptr %48, ptr %13, align 8, !tbaa !46
  %49 = load ptr, ptr %13, align 8, !tbaa !46
  %50 = load ptr, ptr %7, align 8, !tbaa !51
  call void @_ZN16b3BvhSubtreeInfo23setAabbFromQuantizeNodeERK18b3QuantizedBvhNode(ptr noundef nonnull align 16 dereferenceable(32) %49, ptr noundef nonnull align 16 dereferenceable(16) %50)
  %51 = load i32, ptr %5, align 4, !tbaa !42
  %52 = load ptr, ptr %13, align 8, !tbaa !46
  %53 = getelementptr inbounds nuw %struct.b3BvhSubtreeInfoData, ptr %52, i32 0, i32 2
  store i32 %51, ptr %53, align 4, !tbaa !47
  %54 = load i32, ptr %8, align 4, !tbaa !42
  %55 = load ptr, ptr %13, align 8, !tbaa !46
  %56 = getelementptr inbounds nuw %struct.b3BvhSubtreeInfoData, ptr %55, i32 0, i32 3
  store i32 %54, ptr %56, align 16, !tbaa !49
  call void @llvm.lifetime.end.p0(i64 8, ptr %13) #14
  br label %57

57:                                               ; preds = %46, %40
  %58 = load i32, ptr %12, align 4, !tbaa !42
  %59 = icmp sle i32 %58, 2048
  br i1 %59, label %60, label %71

60:                                               ; preds = %57
  call void @llvm.lifetime.start.p0(i64 8, ptr %15) #14
  %61 = getelementptr inbounds nuw %class.b3QuantizedBvh, ptr %17, i32 0, i32 15
  call void @llvm.lifetime.start.p0(i64 32, ptr %16) #14
  call void @_ZN16b3BvhSubtreeInfoC2Ev(ptr noundef nonnull align 16 dereferenceable(32) %16)
  %62 = call noundef nonnull align 16 dereferenceable(32) ptr @_ZN20b3AlignedObjectArrayI16b3BvhSubtreeInfoE6expandERKS0_(ptr noundef nonnull align 8 dereferenceable(25) %61, ptr noundef nonnull align 16 dereferenceable(32) %16)
  call void @llvm.lifetime.end.p0(i64 32, ptr %16) #14
  store ptr %62, ptr %15, align 8, !tbaa !46
  %63 = load ptr, ptr %15, align 8, !tbaa !46
  %64 = load ptr, ptr %10, align 8, !tbaa !51
  call void @_ZN16b3BvhSubtreeInfo23setAabbFromQuantizeNodeERK18b3QuantizedBvhNode(ptr noundef nonnull align 16 dereferenceable(32) %63, ptr noundef nonnull align 16 dereferenceable(16) %64)
  %65 = load i32, ptr %6, align 4, !tbaa !42
  %66 = load ptr, ptr %15, align 8, !tbaa !46
  %67 = getelementptr inbounds nuw %struct.b3BvhSubtreeInfoData, ptr %66, i32 0, i32 2
  store i32 %65, ptr %67, align 4, !tbaa !47
  %68 = load i32, ptr %11, align 4, !tbaa !42
  %69 = load ptr, ptr %15, align 8, !tbaa !46
  %70 = getelementptr inbounds nuw %struct.b3BvhSubtreeInfoData, ptr %69, i32 0, i32 3
  store i32 %68, ptr %70, align 16, !tbaa !49
  call void @llvm.lifetime.end.p0(i64 8, ptr %15) #14
  br label %71

71:                                               ; preds = %60, %57
  %72 = getelementptr inbounds nuw %class.b3QuantizedBvh, ptr %17, i32 0, i32 15
  %73 = call noundef i32 @_ZNK20b3AlignedObjectArrayI16b3BvhSubtreeInfoE4sizeEv(ptr noundef nonnull align 8 dereferenceable(25) %72)
  %74 = getelementptr inbounds nuw %class.b3QuantizedBvh, ptr %17, i32 0, i32 16
  store i32 %73, ptr %74, align 8, !tbaa !28
  call void @llvm.lifetime.end.p0(i64 4, ptr %12) #14
  call void @llvm.lifetime.end.p0(i64 4, ptr %11) #14
  call void @llvm.lifetime.end.p0(i64 8, ptr %10) #14
  call void @llvm.lifetime.end.p0(i64 4, ptr %9) #14
  call void @llvm.lifetime.end.p0(i64 4, ptr %8) #14
  call void @llvm.lifetime.end.p0(i64 8, ptr %7) #14
  ret void
}