; Function Attrs: mustprogress uwtable
define dso_local void @_ZN14b3QuantizedBvh20updateSubtreeHeadersEii(ptr noundef nonnull align 16 dereferenceable(252) %0, i32 noundef %1, i32 noundef %2) local_unnamed_addr #2 align 2 {
  %4 = alloca %class.b3BvhSubtreeInfo, align 16
  %5 = alloca %class.b3BvhSubtreeInfo, align 16
  %6 = getelementptr inbounds nuw i8, ptr %0, i64 192
  %7 = load ptr, ptr %6, align 16, !tbaa !30
  %8 = sext i32 %1 to i64
  %9 = getelementptr inbounds %struct.b3QuantizedBvhNode, ptr %7, i64 %8
  %10 = getelementptr inbounds nuw i8, ptr %9, i64 12
  %11 = load i32, ptr %10, align 4, !tbaa !50
  %12 = icmp sgt i32 %11, -1
  %13 = sub nsw i32 0, %11
  %spec.select = select i1 %12, i32 1, i32 %13
  %14 = sext i32 %2 to i64
  %15 = getelementptr inbounds %struct.b3QuantizedBvhNode, ptr %7, i64 %14
  %16 = getelementptr inbounds nuw i8, ptr %15, i64 12
  %17 = load i32, ptr %16, align 4, !tbaa !50
  %18 = icmp sgt i32 %17, -1
  %19 = sub nsw i32 0, %17
  %20 = select i1 %18, i32 1, i32 %19
  %21 = icmp samesign ult i32 %spec.select, 129
  br i1 %21, label %22, label %43

22:                                               ; preds = %3
  %23 = getelementptr inbounds nuw i8, ptr %0, i64 216
  call void @llvm.lifetime.start.p0(i64 32, ptr nonnull %4) #21
  %24 = call noundef nonnull align 16 dereferenceable(32) ptr @_ZN20b3AlignedObjectArrayI16b3BvhSubtreeInfoE6expandERKS0_(ptr noundef nonnull align 8 dereferenceable(25) %23, ptr noundef nonnull align 16 dereferenceable(32) %4)
  call void @llvm.lifetime.end.p0(i64 32, ptr nonnull %4) #21
  %25 = load i16, ptr %9, align 16, !tbaa !46
  store i16 %25, ptr %24, align 16, !tbaa !46
  %26 = getelementptr inbounds nuw i8, ptr %9, i64 2
  %27 = load i16, ptr %26, align 2, !tbaa !46
  %28 = getelementptr inbounds nuw i8, ptr %24, i64 2
  store i16 %27, ptr %28, align 2, !tbaa !46
  %29 = getelementptr inbounds nuw i8, ptr %9, i64 4
  %30 = load i16, ptr %29, align 4, !tbaa !46
  %31 = getelementptr inbounds nuw i8, ptr %24, i64 4
  store i16 %30, ptr %31, align 4, !tbaa !46
  %32 = getelementptr inbounds nuw i8, ptr %9, i64 6
  %33 = load i16, ptr %32, align 2, !tbaa !46
  %34 = getelementptr inbounds nuw i8, ptr %24, i64 6
  store i16 %33, ptr %34, align 2, !tbaa !46
  %35 = getelementptr inbounds nuw i8, ptr %9, i64 8
  %36 = load i16, ptr %35, align 2, !tbaa !46
  %37 = getelementptr inbounds nuw i8, ptr %24, i64 8
  store i16 %36, ptr %37, align 8, !tbaa !46
  %38 = getelementptr inbounds nuw i8, ptr %9, i64 10
  %39 = load i16, ptr %38, align 2, !tbaa !46
  %40 = getelementptr inbounds nuw i8, ptr %24, i64 10
  store i16 %39, ptr %40, align 2, !tbaa !46
  %41 = getelementptr inbounds nuw i8, ptr %24, i64 12
  store i32 %1, ptr %41, align 4, !tbaa !48
  %42 = getelementptr inbounds nuw i8, ptr %24, i64 16
  store i32 %spec.select, ptr %42, align 16, !tbaa !52
  br label %43

43:                                               ; preds = %22, %3
  %44 = icmp samesign ult i32 %20, 129
  br i1 %44, label %45, label %66

45:                                               ; preds = %43
  %46 = getelementptr inbounds nuw i8, ptr %0, i64 216
  call void @llvm.lifetime.start.p0(i64 32, ptr nonnull %5) #21
  %47 = call noundef nonnull align 16 dereferenceable(32) ptr @_ZN20b3AlignedObjectArrayI16b3BvhSubtreeInfoE6expandERKS0_(ptr noundef nonnull align 8 dereferenceable(25) %46, ptr noundef nonnull align 16 dereferenceable(32) %5)
  call void @llvm.lifetime.end.p0(i64 32, ptr nonnull %5) #21
  %48 = load i16, ptr %15, align 16, !tbaa !46
  store i16 %48, ptr %47, align 16, !tbaa !46
  %49 = getelementptr inbounds nuw i8, ptr %15, i64 2
  %50 = load i16, ptr %49, align 2, !tbaa !46
  %51 = getelementptr inbounds nuw i8, ptr %47, i64 2
  store i16 %50, ptr %51, align 2, !tbaa !46
  %52 = getelementptr inbounds nuw i8, ptr %15, i64 4
  %53 = load i16, ptr %52, align 4, !tbaa !46
  %54 = getelementptr inbounds nuw i8, ptr %47, i64 4
  store i16 %53, ptr %54, align 4, !tbaa !46
  %55 = getelementptr inbounds nuw i8, ptr %15, i64 6
  %56 = load i16, ptr %55, align 2, !tbaa !46
  %57 = getelementptr inbounds nuw i8, ptr %47, i64 6
  store i16 %56, ptr %57, align 2, !tbaa !46
  %58 = getelementptr inbounds nuw i8, ptr %15, i64 8
  %59 = load i16, ptr %58, align 2, !tbaa !46
  %60 = getelementptr inbounds nuw i8, ptr %47, i64 8
  store i16 %59, ptr %60, align 8, !tbaa !46
  %61 = getelementptr inbounds nuw i8, ptr %15, i64 10
  %62 = load i16, ptr %61, align 2, !tbaa !46
  %63 = getelementptr inbounds nuw i8, ptr %47, i64 10
  store i16 %62, ptr %63, align 2, !tbaa !46
  %64 = getelementptr inbounds nuw i8, ptr %47, i64 12
  store i32 %2, ptr %64, align 4, !tbaa !48
  %65 = getelementptr inbounds nuw i8, ptr %47, i64 16
  store i32 %20, ptr %65, align 16, !tbaa !52
  br label %66

66:                                               ; preds = %45, %43
  %67 = getelementptr inbounds nuw i8, ptr %0, i64 220
  %68 = load i32, ptr %67, align 4, !tbaa !36
  %69 = getelementptr inbounds nuw i8, ptr %0, i64 248
  store i32 %68, ptr %69, align 8, !tbaa !38
  ret void
}